target datalayout = "e-m:e-p270:32:32-p271:32:32-p272:64:64-i64:64-i128:128-f80:128-n8:16:32:64-S128"
target triple = "x86_64-pc-linux-gnu"

%struct.cbb_st = type { ptr, ptr, i64, i8, i8, i8 }

; Function Attrs: nounwind uwtable
define hidden i32 @CBS_asn1_ber_to_der(ptr noundef %0, ptr noundef %1, ptr noundef %2) #0 {
  %4 = alloca i32, align 4
  %5 = alloca ptr, align 8
  %6 = alloca ptr, align 8
  %7 = alloca ptr, align 8
  %8 = alloca %struct.cbb_st, align 8
  %9 = alloca i8, align 1
  %10 = alloca i32, align 4
  store ptr %0, ptr %5, align 8, !tbaa !6
  store ptr %1, ptr %6, align 8, !tbaa !11
  store ptr %2, ptr %7, align 8, !tbaa !13
  call void @llvm.lifetime.start.p0(i64 32, ptr %8) #4
  call void @llvm.lifetime.start.p0(i64 1, ptr %9) #4
  %11 = load ptr, ptr %5, align 8, !tbaa !6
  %12 = call i32 @cbs_find_ber(ptr noundef %11, ptr noundef %9, i32 noundef 0)
  %13 = icmp ne i32 %12, 0
  br i1 %13, label %15, label %14

14:                                               ; preds = %3
  store i32 0, ptr %4, align 4
  store i32 1, ptr %10, align 4
  br label %37

15:                                               ; preds = %3
  %16 = load i8, ptr %9, align 1, !tbaa !15
  %17 = icmp ne i8 %16, 0
  br i1 %17, label %21, label %18

18:                                               ; preds = %15
  %19 = load ptr, ptr %6, align 8, !tbaa !11
  store ptr null, ptr %19, align 8, !tbaa !16
  %20 = load ptr, ptr %7, align 8, !tbaa !13
  store i64 0, ptr %20, align 8, !tbaa !18
  store i32 1, ptr %4, align 4
  store i32 1, ptr %10, align 4
  br label %37

21:                                               ; preds = %15
  %22 = load ptr, ptr %5, align 8, !tbaa !6
  %23 = call i64 @CBS_len(ptr noundef %22)
  %24 = call i32 @CBB_init(ptr noundef %8, i64 noundef %23)
  %25 = icmp ne i32 %24, 0
  br i1 %25, label %26, label %35

26:                                               ; preds = %21
  %27 = load ptr, ptr %5, align 8, !tbaa !6
  %28 = call i32 @cbs_convert_ber(ptr noundef %27, ptr noundef %8, i32 noundef 0, i8 noundef signext 0, i32 noundef 0)
  %29 = icmp ne i32 %28, 0
  br i1 %29, label %30, label %35

30:                                               ; preds = %26
  %31 = load ptr, ptr %6, align 8, !tbaa !11
  %32 = load ptr, ptr %7, align 8, !tbaa !13
  %33 = call i32 @CBB_finish(ptr noundef %8, ptr noundef %31, ptr noundef %32)
  %34 = icmp ne i32 %33, 0
  br i1 %34, label %36, label %35

35:                                               ; preds = %30, %26, %21
  call void @CBB_cleanup(ptr noundef %8)
  store i32 0, ptr %4, align 4
  store i32 1, ptr %10, align 4
  br label %37

36:                                               ; preds = %30
  store i32 1, ptr %4, align 4
  store i32 1, ptr %10, align 4
  br label %37

37:                                               ; preds = %36, %35, %18, %14
  call void @llvm.lifetime.end.p0(i64 1, ptr %9) #4
  call void @llvm.lifetime.end.p0(i64 32, ptr %8) #4
  %38 = load i32, ptr %4, align 4
  ret i32 %38
}