; Function Attrs: nounwind uwtable
define hidden range(i32 0, 2) i32 @CBS_asn1_ber_to_der(ptr noundef %0, ptr noundef %1, ptr noundef %2) local_unnamed_addr #0 {
  %4 = alloca %struct.cbb_st, align 8
  %5 = alloca i8, align 1
  call void @llvm.lifetime.start.p0(i64 32, ptr nonnull %4) #4
  call void @llvm.lifetime.start.p0(i64 1, ptr nonnull %5) #4
  %6 = call fastcc i32 @cbs_find_ber(ptr noundef %0, ptr noundef %5, i32 noundef 0)
  %.not = icmp eq i32 %6, 0
  br i1 %.not, label %18, label %7

7:                                                ; preds = %3
  %8 = load i8, ptr %5, align 1, !tbaa !6
  %.not7 = icmp eq i8 %8, 0
  br i1 %.not7, label %9, label %10

9:                                                ; preds = %7
  store ptr null, ptr %1, align 8, !tbaa !9
  store i64 0, ptr %2, align 8, !tbaa !12
  br label %18

10:                                               ; preds = %7
  %11 = tail call i64 @CBS_len(ptr noundef %0) #4
  %12 = call i32 @CBB_init(ptr noundef nonnull %4, i64 noundef %11) #4
  %.not8 = icmp eq i32 %12, 0
  br i1 %.not8, label %17, label %13

13:                                               ; preds = %10
  %14 = call fastcc i32 @cbs_convert_ber(ptr noundef %0, ptr noundef nonnull %4, i32 noundef 0, i8 noundef signext 0, i32 noundef 0)
  %.not9 = icmp eq i32 %14, 0
  br i1 %.not9, label %17, label %15

15:                                               ; preds = %13
  %16 = call i32 @CBB_finish(ptr noundef nonnull %4, ptr noundef %1, ptr noundef %2) #4
  %.not10 = icmp eq i32 %16, 0
  br i1 %.not10, label %17, label %18

17:                                               ; preds = %15, %13, %10
  call void @CBB_cleanup(ptr noundef nonnull %4) #4
  br label %18

18:                                               ; preds = %15, %3, %17, %9
  %.0 = phi i32 [ 0, %17 ], [ 1, %9 ], [ 0, %3 ], [ 1, %15 ]
  call void @llvm.lifetime.end.p0(i64 1, ptr nonnull %5) #4
  call void @llvm.lifetime.end.p0(i64 32, ptr nonnull %4) #4
  ret i32 %.0
}